#include <math.h>
#include <stdio.h>
#include <stdlib.h>
#include <string.h>
#include <iostream>
using namespace std;

/*  ???????????
    ???????
	???2010?10?29?
	????????????????????????????????????????????????
*/
int main()
{
	int n , num[20001]={0} , number , i , j ;              //n???????????????????number?????
	cin >> n ;
	for (i = 1 ; i <= n ; i++)
	{                                                      //??????????num[1]?num[n]??num[0]?????
		cin >> number ;  
	    num[i] = number ;
	}
	for (j = 1 ; j <= n ; j ++)
		for (i = j + 1 ; i <= n ; i ++)
			if (num[j] == num[i])      num[i] = 0 ;       //?????????????????????????????????0?????????10-100??????0??????
	for (i = 1 ; i <= n ; i ++)
		if (num[i] != 0)  {cout << num[i] ; break ;}    
	for (j = i + 1 ; j <= n ; j++)
		if (num[j] != 0)  cout << " " << num [j] ;        //??????????????????????????????????????break????????" "num[j]
	return 0 ;
}
