; ModuleID = '13/217.cpp'
source_filename = "13/217.cpp"
target datalayout = "e-m:e-p270:32:32-p271:32:32-p272:64:64-i64:64-f80:128-n8:16:32:64-S128"
target triple = "x86_64-pc-linux-gnu"

%"class.std::ios_base::Init" = type { i8 }
%"class.std::basic_istream" = type { i32 (...)**, i64, %"class.std::basic_ios" }
%"class.std::basic_ios" = type { %"class.std::ios_base", %"class.std::basic_ostream"*, i8, i8, %"class.std::basic_streambuf"*, %"class.std::ctype"*, %"class.std::num_put"*, %"class.std::num_get"* }
%"class.std::ios_base" = type { i32 (...)**, i64, i64, i32, i32, i32, %"struct.std::ios_base::_Callback_list"*, %"struct.std::ios_base::_Words", [8 x %"struct.std::ios_base::_Words"], i32, %"struct.std::ios_base::_Words"*, %"class.std::locale" }
%"struct.std::ios_base::_Callback_list" = type { %"struct.std::ios_base::_Callback_list"*, void (i32, %"class.std::ios_base"*, i32)*, i32, i32 }
%"struct.std::ios_base::_Words" = type { i8*, i64 }
%"class.std::locale" = type { %"class.std::locale::_Impl"* }
%"class.std::locale::_Impl" = type { i32, %"class.std::locale::facet"**, i64, %"class.std::locale::facet"**, i8** }
%"class.std::locale::facet" = type <{ i32 (...)**, i32, [4 x i8] }>
%"class.std::basic_ostream" = type { i32 (...)**, %"class.std::basic_ios" }
%"class.std::basic_streambuf" = type { i32 (...)**, i8*, i8*, i8*, i8*, i8*, i8*, %"class.std::locale" }
%"class.std::ctype" = type <{ %"class.std::locale::facet.base", [4 x i8], %struct.__locale_struct*, i8, [7 x i8], i32*, i32*, i16*, i8, [256 x i8], [256 x i8], i8, [6 x i8] }>
%"class.std::locale::facet.base" = type <{ i32 (...)**, i32 }>
%struct.__locale_struct = type { [13 x %struct.__locale_data*], i16*, i32*, i32*, [13 x i8*] }
%struct.__locale_data = type opaque
%"class.std::num_put" = type { %"class.std::locale::facet.base", [4 x i8] }
%"class.std::num_get" = type { %"class.std::locale::facet.base", [4 x i8] }

@_ZStL8__ioinit = internal global %"class.std::ios_base::Init" zeroinitializer, align 1
@__dso_handle = external hidden global i8
@_ZSt3cin = external dso_local global %"class.std::basic_istream", align 8
@_ZSt4cout = external dso_local global %"class.std::basic_ostream", align 8
@.str = private unnamed_addr constant [2 x i8] c" \00", align 1
@llvm.global_ctors = appending global [1 x { i32, void ()*, i8* }] [{ i32, void ()*, i8* } { i32 65535, void ()* @_GLOBAL__sub_I_217.cpp, i8* null }]

; Function Attrs: noinline uwtable
define internal void @__cxx_global_var_init() #0 section ".text.startup" {
  call void @_ZNSt8ios_base4InitC1Ev(%"class.std::ios_base::Init"* @_ZStL8__ioinit)
  %1 = call i32 @__cxa_atexit(void (i8*)* bitcast (void (%"class.std::ios_base::Init"*)* @_ZNSt8ios_base4InitD1Ev to void (i8*)*), i8* getelementptr inbounds (%"class.std::ios_base::Init", %"class.std::ios_base::Init"* @_ZStL8__ioinit, i32 0, i32 0), i8* @__dso_handle) #3
  ret void
}

declare dso_local void @_ZNSt8ios_base4InitC1Ev(%"class.std::ios_base::Init"*) unnamed_addr #1

; Function Attrs: nounwind
declare dso_local void @_ZNSt8ios_base4InitD1Ev(%"class.std::ios_base::Init"*) unnamed_addr #2

; Function Attrs: nounwind
declare dso_local i32 @__cxa_atexit(void (i8*)*, i8*, i8*) #3

; Function Attrs: noinline norecurse uwtable
define dso_local i32 @main() #4 {
  %1 = alloca i32, align 4
  %2 = alloca i32, align 4
  %3 = alloca [20001 x i32], align 16
  %4 = alloca i32, align 4
  %5 = alloca i32, align 4
  %6 = alloca i32, align 4
  store i32 0, i32* %1, align 4
  %7 = bitcast [20001 x i32]* %3 to i8*
  call void @llvm.memset.p0i8.i64(i8* align 16 %7, i8 0, i64 80004, i1 false)
  %8 = call dereferenceable(280) %"class.std::basic_istream"* @_ZNSirsERi(%"class.std::basic_istream"* @_ZSt3cin, i32* dereferenceable(4) %2)
  store i32 1, i32* %5, align 4
  br label %9

9:                                                ; preds = %19, %0
  %10 = load i32, i32* %5, align 4
  %11 = load i32, i32* %2, align 4
  %12 = icmp sle i32 %10, %11
  br i1 %12, label %13, label %22

13:                                               ; preds = %9
  %14 = call dereferenceable(280) %"class.std::basic_istream"* @_ZNSirsERi(%"class.std::basic_istream"* @_ZSt3cin, i32* dereferenceable(4) %4)
  %15 = load i32, i32* %4, align 4
  %16 = load i32, i32* %5, align 4
  %17 = sext i32 %16 to i64
  %18 = getelementptr inbounds [20001 x i32], [20001 x i32]* %3, i64 0, i64 %17
  store i32 %15, i32* %18, align 4
  br label %19

19:                                               ; preds = %13
  %20 = load i32, i32* %5, align 4
  %21 = add nsw i32 %20, 1
  store i32 %21, i32* %5, align 4
  br label %9

22:                                               ; preds = %9
  store i32 1, i32* %6, align 4
  br label %23

23:                                               ; preds = %53, %22
  %24 = load i32, i32* %6, align 4
  %25 = load i32, i32* %2, align 4
  %26 = icmp sle i32 %24, %25
  br i1 %26, label %27, label %56

27:                                               ; preds = %23
  %28 = load i32, i32* %6, align 4
  %29 = add nsw i32 %28, 1
  store i32 %29, i32* %5, align 4
  br label %30

30:                                               ; preds = %49, %27
  %31 = load i32, i32* %5, align 4
  %32 = load i32, i32* %2, align 4
  %33 = icmp sle i32 %31, %32
  br i1 %33, label %34, label %52

34:                                               ; preds = %30
  %35 = load i32, i32* %6, align 4
  %36 = sext i32 %35 to i64
  %37 = getelementptr inbounds [20001 x i32], [20001 x i32]* %3, i64 0, i64 %36
  %38 = load i32, i32* %37, align 4
  %39 = load i32, i32* %5, align 4
  %40 = sext i32 %39 to i64
  %41 = getelementptr inbounds [20001 x i32], [20001 x i32]* %3, i64 0, i64 %40
  %42 = load i32, i32* %41, align 4
  %43 = icmp eq i32 %38, %42
  br i1 %43, label %44, label %48

44:                                               ; preds = %34
  %45 = load i32, i32* %5, align 4
  %46 = sext i32 %45 to i64
  %47 = getelementptr inbounds [20001 x i32], [20001 x i32]* %3, i64 0, i64 %46
  store i32 0, i32* %47, align 4
  br label %48

48:                                               ; preds = %44, %34
  br label %49

49:                                               ; preds = %48
  %50 = load i32, i32* %5, align 4
  %51 = add nsw i32 %50, 1
  store i32 %51, i32* %5, align 4
  br label %30

52:                                               ; preds = %30
  br label %53

53:                                               ; preds = %52
  %54 = load i32, i32* %6, align 4
  %55 = add nsw i32 %54, 1
  store i32 %55, i32* %6, align 4
  br label %23

56:                                               ; preds = %23
  store i32 1, i32* %5, align 4
  br label %57

57:                                               ; preds = %74, %56
  %58 = load i32, i32* %5, align 4
  %59 = load i32, i32* %2, align 4
  %60 = icmp sle i32 %58, %59
  br i1 %60, label %61, label %77

61:                                               ; preds = %57
  %62 = load i32, i32* %5, align 4
  %63 = sext i32 %62 to i64
  %64 = getelementptr inbounds [20001 x i32], [20001 x i32]* %3, i64 0, i64 %63
  %65 = load i32, i32* %64, align 4
  %66 = icmp ne i32 %65, 0
  br i1 %66, label %67, label %73

67:                                               ; preds = %61
  %68 = load i32, i32* %5, align 4
  %69 = sext i32 %68 to i64
  %70 = getelementptr inbounds [20001 x i32], [20001 x i32]* %3, i64 0, i64 %69
  %71 = load i32, i32* %70, align 4
  %72 = call dereferenceable(272) %"class.std::basic_ostream"* @_ZNSolsEi(%"class.std::basic_ostream"* @_ZSt4cout, i32 %71)
  br label %77

73:                                               ; preds = %61
  br label %74

74:                                               ; preds = %73
  %75 = load i32, i32* %5, align 4
  %76 = add nsw i32 %75, 1
  store i32 %76, i32* %5, align 4
  br label %57

77:                                               ; preds = %67, %57
  %78 = load i32, i32* %5, align 4
  %79 = add nsw i32 %78, 1
  store i32 %79, i32* %6, align 4
  br label %80

80:                                               ; preds = %98, %77
  %81 = load i32, i32* %6, align 4
  %82 = load i32, i32* %2, align 4
  %83 = icmp sle i32 %81, %82
  br i1 %83, label %84, label %101

84:                                               ; preds = %80
  %85 = load i32, i32* %6, align 4
  %86 = sext i32 %85 to i64
  %87 = getelementptr inbounds [20001 x i32], [20001 x i32]* %3, i64 0, i64 %86
  %88 = load i32, i32* %87, align 4
  %89 = icmp ne i32 %88, 0
  br i1 %89, label %90, label %97

90:                                               ; preds = %84
  %91 = call dereferenceable(272) %"class.std::basic_ostream"* @_ZStlsISt11char_traitsIcEERSt13basic_ostreamIcT_ES5_PKc(%"class.std::basic_ostream"* dereferenceable(272) @_ZSt4cout, i8* getelementptr inbounds ([2 x i8], [2 x i8]* @.str, i64 0, i64 0))
  %92 = load i32, i32* %6, align 4
  %93 = sext i32 %92 to i64
  %94 = getelementptr inbounds [20001 x i32], [20001 x i32]* %3, i64 0, i64 %93
  %95 = load i32, i32* %94, align 4
  %96 = call dereferenceable(272) %"class.std::basic_ostream"* @_ZNSolsEi(%"class.std::basic_ostream"* %91, i32 %95)
  br label %97

97:                                               ; preds = %90, %84
  br label %98

98:                                               ; preds = %97
  %99 = load i32, i32* %6, align 4
  %100 = add nsw i32 %99, 1
  store i32 %100, i32* %6, align 4
  br label %80

101:                                              ; preds = %80
  ret i32 0
}

; Function Attrs: argmemonly nounwind willreturn
declare void @llvm.memset.p0i8.i64(i8* nocapture writeonly, i8, i64, i1 immarg) #5

declare dso_local dereferenceable(280) %"class.std::basic_istream"* @_ZNSirsERi(%"class.std::basic_istream"*, i32* dereferenceable(4)) #1

declare dso_local dereferenceable(272) %"class.std::basic_ostream"* @_ZNSolsEi(%"class.std::basic_ostream"*, i32) #1

declare dso_local dereferenceable(272) %"class.std::basic_ostream"* @_ZStlsISt11char_traitsIcEERSt13basic_ostreamIcT_ES5_PKc(%"class.std::basic_ostream"* dereferenceable(272), i8*) #1

; Function Attrs: noinline uwtable
define internal void @_GLOBAL__sub_I_217.cpp() #0 section ".text.startup" {
  call void @__cxx_global_var_init()
  ret void
}


!llvm.module.flags = !{!0}
!llvm.ident = !{!1}

!0 = !{i32 1, !"wchar_size", i32 4}
!1 = !{!"clang version 10.0.0-4ubuntu1 "}
