; ModuleID = 'source-C-CXX/12/217.cpp'
source_filename = "source-C-CXX/12/217.cpp"
target datalayout = "e-m:e-p270:32:32-p271:32:32-p272:64:64-i64:64-f80:128-n8:16:32:64-S128"
target triple = "x86_64-pc-linux-gnu"

%"class.std::ios_base::Init" = type { i8 }
%"class.std::basic_istream" = type { i32 (...)**, i64, %"class.std::basic_ios" }
%"class.std::basic_ios" = type { %"class.std::ios_base", %"class.std::basic_ostream"*, i8, i8, %"class.std::basic_streambuf"*, %"class.std::ctype"*, %"class.std::num_put"*, %"class.std::num_get"* }
%"class.std::ios_base" = type { i32 (...)**, i64, i64, i32, i32, i32, %"struct.std::ios_base::_Callback_list"*, %"struct.std::ios_base::_Words", [8 x %"struct.std::ios_base::_Words"], i32, %"struct.std::ios_base::_Words"*, %"class.std::locale" }
%"struct.std::ios_base::_Callback_list" = type { %"struct.std::ios_base::_Callback_list"*, void (i32, %"class.std::ios_base"*, i32)*, i32, i32 }
%"struct.std::ios_base::_Words" = type { i8*, i64 }
%"class.std::locale" = type { %"class.std::locale::_Impl"* }
%"class.std::locale::_Impl" = type { i32, %"class.std::locale::facet"**, i64, %"class.std::locale::facet"**, i8** }
%"class.std::locale::facet" = type <{ i32 (...)**, i32, [4 x i8] }>
%"class.std::basic_ostream" = type { i32 (...)**, %"class.std::basic_ios" }
%"class.std::basic_streambuf" = type { i32 (...)**, i8*, i8*, i8*, i8*, i8*, i8*, %"class.std::locale" }
%"class.std::ctype" = type <{ %"class.std::locale::facet.base", [4 x i8], %struct.__locale_struct*, i8, [7 x i8], i32*, i32*, i16*, i8, [256 x i8], [256 x i8], i8, [6 x i8] }>
%"class.std::locale::facet.base" = type <{ i32 (...)**, i32 }>
%struct.__locale_struct = type { [13 x %struct.__locale_data*], i16*, i32*, i32*, [13 x i8*] }
%struct.__locale_data = type opaque
%"class.std::num_put" = type { %"class.std::locale::facet.base", [4 x i8] }
%"class.std::num_get" = type { %"class.std::locale::facet.base", [4 x i8] }

@_ZStL8__ioinit = internal global %"class.std::ios_base::Init" zeroinitializer, align 1
@__dso_handle = external hidden global i8
@_ZSt3cin = external global %"class.std::basic_istream", align 8
@_ZSt4cout = external global %"class.std::basic_ostream", align 8
@.str = private unnamed_addr constant [2 x i8] c" \00", align 1
@llvm.global_ctors = appending global [1 x { i32, void ()*, i8* }] [{ i32, void ()*, i8* } { i32 65535, void ()* @_GLOBAL__sub_I_217.cpp, i8* null }]

declare void @_ZNSt8ios_base4InitC1Ev(%"class.std::ios_base::Init"* nonnull align 1 dereferenceable(1)) unnamed_addr #0

; Function Attrs: nounwind
declare void @_ZNSt8ios_base4InitD1Ev(%"class.std::ios_base::Init"* nonnull align 1 dereferenceable(1)) unnamed_addr #1

; Function Attrs: nofree nounwind
declare i32 @__cxa_atexit(void (i8*)*, i8*, i8*) local_unnamed_addr #2

; Function Attrs: mustprogress norecurse sspstrong uwtable
define dso_local i32 @main() local_unnamed_addr #3 {
  %1 = alloca i32, align 4
  %2 = alloca [20001 x i32], align 16
  %3 = alloca i32, align 4
  %4 = bitcast i32* %1 to i8*
  call void @llvm.lifetime.start.p0i8(i64 4, i8* nonnull %4) #7
  %5 = bitcast [20001 x i32]* %2 to i8*
  call void @llvm.lifetime.start.p0i8(i64 80004, i8* nonnull %5) #7
  call void @llvm.memset.p0i8.i64(i8* noundef nonnull align 16 dereferenceable(80004) %5, i8 0, i64 80004, i1 false)
  %6 = bitcast i32* %3 to i8*
  call void @llvm.lifetime.start.p0i8(i64 4, i8* nonnull %6) #7
  %7 = call nonnull align 8 dereferenceable(16) %"class.std::basic_istream"* @_ZNSirsERi(%"class.std::basic_istream"* nonnull align 8 dereferenceable(16) @_ZSt3cin, i32* nonnull align 4 dereferenceable(4) %1)
  %8 = load i32, i32* %1, align 4, !tbaa !5
  %9 = icmp slt i32 %8, 1
  br i1 %9, label %83, label %17

10:                                               ; preds = %17
  %11 = icmp slt i32 %23, 1
  br i1 %11, label %83, label %12

12:                                               ; preds = %10
  %13 = add nuw i32 %23, 1
  %14 = zext i32 %23 to i64
  %15 = zext i32 %13 to i64
  %16 = add i32 %23, -2
  br label %35

17:                                               ; preds = %0, %17
  %18 = phi i64 [ %22, %17 ], [ 1, %0 ]
  %19 = call nonnull align 8 dereferenceable(16) %"class.std::basic_istream"* @_ZNSirsERi(%"class.std::basic_istream"* nonnull align 8 dereferenceable(16) @_ZSt3cin, i32* nonnull align 4 dereferenceable(4) %3)
  %20 = load i32, i32* %3, align 4, !tbaa !5
  %21 = getelementptr inbounds [20001 x i32], [20001 x i32]* %2, i64 0, i64 %18
  store i32 %20, i32* %21, align 4, !tbaa !5
  %22 = add nuw nsw i64 %18, 1
  %23 = load i32, i32* %1, align 4, !tbaa !5
  %24 = sext i32 %23 to i64
  %25 = icmp slt i64 %18, %24
  br i1 %25, label %17, label %10, !llvm.loop !9

26:                                               ; preds = %55, %106, %35
  %27 = add nuw nsw i64 %38, 1
  %28 = icmp eq i64 %39, %15
  %29 = add i32 %36, 1
  br i1 %28, label %30, label %35, !llvm.loop !11

30:                                               ; preds = %26
  br i1 %11, label %83, label %31

31:                                               ; preds = %30
  %32 = add nuw i32 %23, 1
  %33 = add nuw i32 %23, 1
  %34 = zext i32 %33 to i64
  br label %71

35:                                               ; preds = %12, %26
  %36 = phi i32 [ 0, %12 ], [ %29, %26 ]
  %37 = phi i64 [ 1, %12 ], [ %39, %26 ]
  %38 = phi i64 [ 2, %12 ], [ %27, %26 ]
  %39 = add nuw nsw i64 %37, 1
  %40 = getelementptr inbounds [20001 x i32], [20001 x i32]* %2, i64 0, i64 %37
  %41 = icmp ult i64 %37, %14
  br i1 %41, label %42, label %26

42:                                               ; preds = %35
  %43 = xor i32 %36, -1
  %44 = add i32 %23, %43
  %45 = and i32 %44, 1
  %46 = icmp eq i32 %45, 0
  br i1 %46, label %55, label %47

47:                                               ; preds = %42
  %48 = load i32, i32* %40, align 4, !tbaa !5
  %49 = getelementptr inbounds [20001 x i32], [20001 x i32]* %2, i64 0, i64 %38
  %50 = load i32, i32* %49, align 4, !tbaa !5
  %51 = icmp eq i32 %48, %50
  br i1 %51, label %52, label %53

52:                                               ; preds = %47
  store i32 0, i32* %49, align 4, !tbaa !5
  br label %53

53:                                               ; preds = %52, %47
  %54 = add nuw nsw i64 %38, 1
  br label %55

55:                                               ; preds = %53, %42
  %56 = phi i64 [ %54, %53 ], [ %38, %42 ]
  %57 = icmp eq i32 %16, %36
  br i1 %57, label %26, label %58

58:                                               ; preds = %55, %106
  %59 = phi i64 [ %107, %106 ], [ %56, %55 ]
  %60 = load i32, i32* %40, align 4, !tbaa !5
  %61 = getelementptr inbounds [20001 x i32], [20001 x i32]* %2, i64 0, i64 %59
  %62 = load i32, i32* %61, align 4, !tbaa !5
  %63 = icmp eq i32 %60, %62
  br i1 %63, label %64, label %65

64:                                               ; preds = %58
  store i32 0, i32* %61, align 4, !tbaa !5
  br label %65

65:                                               ; preds = %58, %64
  %66 = add nuw nsw i64 %59, 1
  %67 = load i32, i32* %40, align 4, !tbaa !5
  %68 = getelementptr inbounds [20001 x i32], [20001 x i32]* %2, i64 0, i64 %66
  %69 = load i32, i32* %68, align 4, !tbaa !5
  %70 = icmp eq i32 %67, %69
  br i1 %70, label %105, label %106

71:                                               ; preds = %31, %80
  %72 = phi i64 [ 1, %31 ], [ %81, %80 ]
  %73 = getelementptr inbounds [20001 x i32], [20001 x i32]* %2, i64 0, i64 %72
  %74 = load i32, i32* %73, align 4, !tbaa !5
  %75 = icmp eq i32 %74, 0
  br i1 %75, label %80, label %76

76:                                               ; preds = %71
  %77 = trunc i64 %72 to i32
  %78 = call nonnull align 8 dereferenceable(8) %"class.std::basic_ostream"* @_ZNSolsEi(%"class.std::basic_ostream"* nonnull align 8 dereferenceable(8) @_ZSt4cout, i32 %74)
  %79 = load i32, i32* %1, align 4, !tbaa !5
  br label %83

80:                                               ; preds = %71
  %81 = add nuw nsw i64 %72, 1
  %82 = icmp eq i64 %81, %34
  br i1 %82, label %83, label %71, !llvm.loop !12

83:                                               ; preds = %80, %10, %0, %30, %76
  %84 = phi i32 [ %79, %76 ], [ %23, %30 ], [ %8, %0 ], [ %23, %10 ], [ %23, %80 ]
  %85 = phi i32 [ %77, %76 ], [ 1, %30 ], [ 1, %0 ], [ 1, %10 ], [ %32, %80 ]
  %86 = icmp slt i32 %85, %84
  br i1 %86, label %87, label %104

87:                                               ; preds = %83
  %88 = zext i32 %85 to i64
  br label %89

89:                                               ; preds = %87, %100
  %90 = phi i32 [ %84, %87 ], [ %101, %100 ]
  %91 = phi i64 [ %88, %87 ], [ %92, %100 ]
  %92 = add nuw nsw i64 %91, 1
  %93 = getelementptr inbounds [20001 x i32], [20001 x i32]* %2, i64 0, i64 %92
  %94 = load i32, i32* %93, align 4, !tbaa !5
  %95 = icmp eq i32 %94, 0
  br i1 %95, label %100, label %96

96:                                               ; preds = %89
  %97 = call nonnull align 8 dereferenceable(8) %"class.std::basic_ostream"* @_ZSt16__ostream_insertIcSt11char_traitsIcEERSt13basic_ostreamIT_T0_ES6_PKS3_l(%"class.std::basic_ostream"* nonnull align 8 dereferenceable(8) @_ZSt4cout, i8* nonnull getelementptr inbounds ([2 x i8], [2 x i8]* @.str, i64 0, i64 0), i64 1)
  %98 = call nonnull align 8 dereferenceable(8) %"class.std::basic_ostream"* @_ZNSolsEi(%"class.std::basic_ostream"* nonnull align 8 dereferenceable(8) @_ZSt4cout, i32 %94)
  %99 = load i32, i32* %1, align 4, !tbaa !5
  br label %100

100:                                              ; preds = %89, %96
  %101 = phi i32 [ %90, %89 ], [ %99, %96 ]
  %102 = trunc i64 %92 to i32
  %103 = icmp sgt i32 %101, %102
  br i1 %103, label %89, label %104, !llvm.loop !13

104:                                              ; preds = %100, %83
  call void @llvm.lifetime.end.p0i8(i64 4, i8* nonnull %6) #7
  call void @llvm.lifetime.end.p0i8(i64 80004, i8* nonnull %5) #7
  call void @llvm.lifetime.end.p0i8(i64 4, i8* nonnull %4) #7
  ret i32 0

105:                                              ; preds = %65
  store i32 0, i32* %68, align 4, !tbaa !5
  br label %106

106:                                              ; preds = %105, %65
  %107 = add nuw nsw i64 %59, 2
  %108 = trunc i64 %107 to i32
  %109 = icmp eq i32 %13, %108
  br i1 %109, label %26, label %58, !llvm.loop !14
}

; Function Attrs: argmemonly mustprogress nofree nosync nounwind willreturn
declare void @llvm.lifetime.start.p0i8(i64 immarg, i8* nocapture) #4

; Function Attrs: argmemonly mustprogress nofree nounwind willreturn writeonly
declare void @llvm.memset.p0i8.i64(i8* nocapture writeonly, i8, i64, i1 immarg) #5

declare nonnull align 8 dereferenceable(16) %"class.std::basic_istream"* @_ZNSirsERi(%"class.std::basic_istream"* nonnull align 8 dereferenceable(16), i32* nonnull align 4 dereferenceable(4)) local_unnamed_addr #0

declare nonnull align 8 dereferenceable(8) %"class.std::basic_ostream"* @_ZNSolsEi(%"class.std::basic_ostream"* nonnull align 8 dereferenceable(8), i32) local_unnamed_addr #0

; Function Attrs: argmemonly mustprogress nofree nosync nounwind willreturn
declare void @llvm.lifetime.end.p0i8(i64 immarg, i8* nocapture) #4

declare nonnull align 8 dereferenceable(8) %"class.std::basic_ostream"* @_ZSt16__ostream_insertIcSt11char_traitsIcEERSt13basic_ostreamIT_T0_ES6_PKS3_l(%"class.std::basic_ostream"* nonnull align 8 dereferenceable(8), i8*, i64) local_unnamed_addr #0

; Function Attrs: sspstrong uwtable
define internal void @_GLOBAL__sub_I_217.cpp() #6 section ".text.startup" {
  tail call void @_ZNSt8ios_base4InitC1Ev(%"class.std::ios_base::Init"* nonnull align 1 dereferenceable(1) @_ZStL8__ioinit)
  %1 = tail call i32 @__cxa_atexit(void (i8*)* bitcast (void (%"class.std::ios_base::Init"*)* @_ZNSt8ios_base4InitD1Ev to void (i8*)*), i8* getelementptr inbounds (%"class.std::ios_base::Init", %"class.std::ios_base::Init"* @_ZStL8__ioinit, i64 0, i32 0), i8* nonnull @__dso_handle) #7
  ret void
}


!llvm.module.flags = !{!0, !1, !2, !3}
!llvm.ident = !{!4}

!0 = !{i32 1, !"wchar_size", i32 4}
!1 = !{i32 7, !"PIC Level", i32 2}
!2 = !{i32 7, !"PIE Level", i32 2}
!3 = !{i32 7, !"uwtable", i32 1}
!4 = !{!"clang version 13.0.0"}
!5 = !{!6, !6, i64 0}
!6 = !{!"int", !7, i64 0}
!7 = !{!"omnipotent char", !8, i64 0}
!8 = !{!"Simple C++ TBAA"}
!9 = distinct !{!9, !10}
!10 = !{!"llvm.loop.mustprogress"}
!11 = distinct !{!11, !10}
!12 = distinct !{!12, !10}
!13 = distinct !{!13, !10}
!14 = distinct !{!14, !10}
